; Function Attrs: mustprogress uwtable
define void @_ZN9grpc_core8channelz14SubchannelNode14SetChildSocketENS_13RefCountedPtrINS0_10SocketNodeEEE(ptr noundef nonnull align 8 dereferenceable(216) %0, ptr noundef captures(none) %1) local_unnamed_addr #3 align 2 personality ptr @__gxx_personality_v0 {
  %3 = getelementptr inbounds nuw i8, ptr %0, i64 72
  tail call void @_ZN4absl12lts_202407225Mutex4LockEv(ptr noundef nonnull align 8 dereferenceable(8) %3)
  %4 = getelementptr inbounds nuw i8, ptr %0, i64 80
  %5 = load ptr, ptr %1, align 8, !tbaa !184
  store ptr null, ptr %1, align 8, !tbaa !184
  %6 = load ptr, ptr %4, align 8, !tbaa !184
  store ptr %5, ptr %4, align 8, !tbaa !184
  %.not.i.i = icmp eq ptr %6, null
  br i1 %.not.i.i, label %_ZN9grpc_core13RefCountedPtrINS_8channelz10SocketNodeEEaSEOS3_.exit, label %7

7:                                                ; preds = %2
  %8 = getelementptr inbounds nuw i8, ptr %6, i64 8
  %9 = atomicrmw sub ptr %8, i64 1 acq_rel, align 8
  %10 = icmp eq i64 %9, 1
  br i1 %10, label %11, label %_ZN9grpc_core13RefCountedPtrINS_8channelz10SocketNodeEEaSEOS3_.exit, !prof !28

11:                                               ; preds = %7
  %12 = load ptr, ptr %6, align 8, !tbaa !8
  %13 = getelementptr inbounds nuw i8, ptr %12, i64 8
  %14 = load ptr, ptr %13, align 8
  tail call void %14(ptr noundef nonnull align 8 dereferenceable(64) %6) #32
  br label %_ZN9grpc_core13RefCountedPtrINS_8channelz10SocketNodeEEaSEOS3_.exit

_ZN9grpc_core13RefCountedPtrINS_8channelz10SocketNodeEEaSEOS3_.exit: ; preds = %2, %7, %11
  invoke void @_ZN4absl12lts_202407225Mutex6UnlockEv(ptr noundef nonnull align 8 dereferenceable(8) %3)
          to label %_ZN4absl12lts_202407229MutexLockD2Ev.exit unwind label %15

15:                                               ; preds = %_ZN9grpc_core13RefCountedPtrINS_8channelz10SocketNodeEEaSEOS3_.exit
  %16 = landingpad { ptr, i32 }
          catch ptr null
  %17 = extractvalue { ptr, i32 } %16, 0
  tail call void @__clang_call_terminate(ptr %17) #31
  unreachable

_ZN4absl12lts_202407229MutexLockD2Ev.exit:        ; preds = %_ZN9grpc_core13RefCountedPtrINS_8channelz10SocketNodeEEaSEOS3_.exit
  ret void
}